; Function Attrs: mustprogress uwtable
define hidden void @_ZN5zxing9Binarizer14getBlackMatrixERNS_12ErrorHandlerE(ptr dead_on_unwind noalias writable writeonly sret(%"class.zxing::Ref.0") align 8 captures(none) initializes((0, 8)) %0, ptr noundef nonnull align 8 captures(none) dereferenceable(72) %1, ptr noundef nonnull align 8 dereferenceable(48) %2) unnamed_addr #0 align 2 {
  %4 = load ptr, ptr %2, align 8
  %5 = getelementptr inbounds nuw i8, ptr %4, i64 16
  %6 = load ptr, ptr %5, align 8
  %7 = tail call noundef i32 %6(ptr noundef nonnull align 8 dereferenceable(48) %2)
  %.not = icmp eq i32 %7, 0
  br i1 %.not, label %8, label %_ZN5zxing3RefINS_9BitMatrixEEC2ERKS2_.exit

8:                                                ; preds = %3
  %9 = getelementptr inbounds nuw i8, ptr %1, i64 56
  %10 = getelementptr inbounds nuw i8, ptr %1, i64 48
  %11 = load ptr, ptr %9, align 8
  %.not.i.i = icmp eq ptr %11, null
  br i1 %.not.i.i, label %16, label %12

12:                                               ; preds = %8
  %13 = getelementptr inbounds nuw i8, ptr %11, i64 8
  %14 = load i32, ptr %13, align 8
  %15 = add i32 %14, 1
  store i32 %15, ptr %13, align 8
  br label %16

16:                                               ; preds = %12, %8
  %17 = load ptr, ptr %10, align 8
  %.not5.i.i = icmp eq ptr %17, null
  br i1 %.not5.i.i, label %_ZN5zxing3RefINS_9BitMatrixEEaSERKS2_.exit, label %18

18:                                               ; preds = %16
  %19 = getelementptr inbounds nuw i8, ptr %17, i64 8
  %20 = load i32, ptr %19, align 8
  %21 = add i32 %20, -1
  store i32 %21, ptr %19, align 8
  %22 = icmp eq i32 %21, 0
  br i1 %22, label %23, label %_ZN5zxing3RefINS_9BitMatrixEEaSERKS2_.exit

23:                                               ; preds = %18
  store i32 -559026175, ptr %19, align 8
  %24 = load ptr, ptr %17, align 8
  %25 = getelementptr inbounds nuw i8, ptr %24, i64 8
  %26 = load ptr, ptr %25, align 8
  tail call void %26(ptr noundef nonnull align 8 dereferenceable(12) %17) #10
  br label %_ZN5zxing3RefINS_9BitMatrixEEaSERKS2_.exit

_ZN5zxing3RefINS_9BitMatrixEEaSERKS2_.exit:       ; preds = %16, %18, %23
  store ptr %11, ptr %10, align 8
  br i1 %.not.i.i, label %_ZN5zxing3RefINS_9BitMatrixEEC2ERKS2_.exit, label %27

27:                                               ; preds = %_ZN5zxing3RefINS_9BitMatrixEEaSERKS2_.exit
  %28 = getelementptr inbounds nuw i8, ptr %11, i64 8
  %29 = load i32, ptr %28, align 8
  %30 = add i32 %29, 1
  store i32 %30, ptr %28, align 8
  br label %_ZN5zxing3RefINS_9BitMatrixEEC2ERKS2_.exit

_ZN5zxing3RefINS_9BitMatrixEEC2ERKS2_.exit:       ; preds = %_ZN5zxing3RefINS_9BitMatrixEEaSERKS2_.exit, %27, %3
  %storemerge = phi ptr [ null, %3 ], [ %11, %27 ], [ null, %_ZN5zxing3RefINS_9BitMatrixEEaSERKS2_.exit ]
  store ptr %storemerge, ptr %0, align 8
  ret void
}